target datalayout = "e-m:e-p270:32:32-p271:32:32-p272:64:64-i64:64-i128:128-f80:128-n8:16:32:64-S128"
target triple = "x86_64-pc-linux-gnu"

%struct.DECODER_CACHE = type { ptr, ptr }

@.str = private unnamed_addr constant [47 x i8] c"../openssl/crypto/encode_decode/decoder_pkey.c\00", align 1
@__func__.ossl_decoder_cache_flush = private unnamed_addr constant [25 x i8] c"ossl_decoder_cache_flush\00", align 1

; Function Attrs: inlinehint nounwind uwtable
define internal void @lh_DECODER_CACHE_ENTRY_flush(ptr noundef %0) #3 {
  %2 = alloca ptr, align 8
  store ptr %0, ptr %2, align 8, !tbaa !29
  %3 = load ptr, ptr %2, align 8, !tbaa !29
  call void @OPENSSL_LH_flush(ptr noundef %3)
  ret void
}

; Function Attrs: inlinehint nounwind uwtable
define internal void @lh_DECODER_CACHE_ENTRY_doall(ptr noundef %0, ptr noundef %1) #3 {
  %3 = alloca ptr, align 8
  %4 = alloca ptr, align 8
  store ptr %0, ptr %3, align 8, !tbaa !29
  store ptr %1, ptr %4, align 8, !tbaa !14
  %5 = load ptr, ptr %3, align 8, !tbaa !29
  %6 = load ptr, ptr %4, align 8, !tbaa !14
  call void @OPENSSL_LH_doall(ptr noundef %5, ptr noundef %6)
  ret void
}

; Function Attrs: nounwind uwtable
define i32 @ossl_decoder_cache_flush(ptr noundef %0) #0 {
  %2 = alloca i32, align 4
  %3 = alloca ptr, align 8
  %4 = alloca ptr, align 8
  %5 = alloca i32, align 4
  store ptr %0, ptr %3, align 8, !tbaa !15
  call void @llvm.lifetime.start.p0(i64 8, ptr %4) #7
  %6 = load ptr, ptr %3, align 8, !tbaa !15
  %7 = call ptr @ossl_lib_ctx_get_data(ptr noundef %6, i32 noundef 20)
  store ptr %7, ptr %4, align 8, !tbaa !14
  %8 = load ptr, ptr %4, align 8, !tbaa !14
  %9 = icmp eq ptr %8, null
  br i1 %9, label %10, label %11

10:                                               ; preds = %1
  store i32 0, ptr %2, align 4
  store i32 1, ptr %5, align 4
  br label %29

11:                                               ; preds = %1
  %12 = load ptr, ptr %4, align 8, !tbaa !14
  %13 = getelementptr inbounds nuw %struct.DECODER_CACHE, ptr %12, i32 0, i32 0
  %14 = load ptr, ptr %13, align 8, !tbaa !17
  %15 = call i32 @CRYPTO_THREAD_write_lock(ptr noundef %14)
  %16 = icmp ne i32 %15, 0
  br i1 %16, label %18, label %17

17:                                               ; preds = %11
  call void @ERR_new()
  call void @ERR_set_debug(ptr noundef @.str, i32 noundef 735, ptr noundef @__func__.ossl_decoder_cache_flush)
  call void (i32, i32, ptr, ...) @ERR_set_error(i32 noundef 60, i32 noundef 524348, ptr noundef null)
  store i32 0, ptr %2, align 4
  store i32 1, ptr %5, align 4
  br label %29

18:                                               ; preds = %11
  %19 = load ptr, ptr %4, align 8, !tbaa !14
  %20 = getelementptr inbounds nuw %struct.DECODER_CACHE, ptr %19, i32 0, i32 1
  %21 = load ptr, ptr %20, align 8, !tbaa !20
  call void @lh_DECODER_CACHE_ENTRY_doall(ptr noundef %21, ptr noundef @decoder_cache_entry_free)
  %22 = load ptr, ptr %4, align 8, !tbaa !14
  %23 = getelementptr inbounds nuw %struct.DECODER_CACHE, ptr %22, i32 0, i32 1
  %24 = load ptr, ptr %23, align 8, !tbaa !20
  call void @lh_DECODER_CACHE_ENTRY_flush(ptr noundef %24)
  %25 = load ptr, ptr %4, align 8, !tbaa !14
  %26 = getelementptr inbounds nuw %struct.DECODER_CACHE, ptr %25, i32 0, i32 0
  %27 = load ptr, ptr %26, align 8, !tbaa !17
  %28 = call i32 @CRYPTO_THREAD_unlock(ptr noundef %27)
  store i32 1, ptr %2, align 4
  store i32 1, ptr %5, align 4
  br label %29

29:                                               ; preds = %18, %17, %10
  call void @llvm.lifetime.end.p0(i64 8, ptr %4) #7
  %30 = load i32, ptr %2, align 4
  ret i32 %30
}