; Function Attrs: nounwind uwtable
define range(i32 0, 2) i32 @ossl_decoder_cache_flush(ptr noundef %0) local_unnamed_addr #0 {
  %2 = tail call ptr @ossl_lib_ctx_get_data(ptr noundef %0, i32 noundef 20) #7
  %3 = icmp eq ptr %2, null
  br i1 %3, label %14, label %4

4:                                                ; preds = %1
  %5 = load ptr, ptr %2, align 8, !tbaa !3
  %6 = tail call i32 @CRYPTO_THREAD_write_lock(ptr noundef %5) #7
  %.not = icmp eq i32 %6, 0
  br i1 %.not, label %7, label %8

7:                                                ; preds = %4
  tail call void @ERR_new() #7
  tail call void @ERR_set_debug(ptr noundef nonnull @.str, i32 noundef 735, ptr noundef nonnull @__func__.ossl_decoder_cache_flush) #7
  tail call void (i32, i32, ptr, ...) @ERR_set_error(i32 noundef 60, i32 noundef 524348, ptr noundef null) #7
  br label %14

8:                                                ; preds = %4
  %9 = getelementptr inbounds nuw i8, ptr %2, i64 8
  %10 = load ptr, ptr %9, align 8, !tbaa !9
  tail call void @OPENSSL_LH_doall(ptr noundef %10, ptr noundef nonnull @decoder_cache_entry_free) #7
  %11 = load ptr, ptr %9, align 8, !tbaa !9
  tail call void @OPENSSL_LH_flush(ptr noundef %11) #7
  %12 = load ptr, ptr %2, align 8, !tbaa !3
  %13 = tail call i32 @CRYPTO_THREAD_unlock(ptr noundef %12) #7
  br label %14

14:                                               ; preds = %1, %8, %7
  %.0 = phi i32 [ 1, %8 ], [ 0, %7 ], [ 0, %1 ]
  ret i32 %.0
}